target datalayout = "e-m:e-p270:32:32-p271:32:32-p272:64:64-i64:64-i128:128-f80:128-n8:16:32:64-S128"
target triple = "x86_64-pc-linux-gnu"

%struct.cli_ctx_tag = type { ptr, ptr, ptr, ptr, ptr, ptr, ptr, i64, ptr, i32, i32, ptr, i32, i32, ptr, [16 x i8], ptr, ptr, ptr, ptr, ptr, ptr, %struct.timeval, i8, i8 }
%struct.timeval = type { i64, i64 }
%struct.cl_engine = type { i32, i32, i32, [2 x i32], i32, i32, i32, ptr, i32, i64, i32, i32, i64, i64, i32, i32, i32, i32, ptr, ptr, ptr, ptr, ptr, ptr, ptr, ptr, ptr, ptr, ptr, ptr, ptr, ptr, ptr, ptr, ptr, ptr, ptr, i64, ptr, %struct.crtmgr, ptr, ptr, ptr, ptr, ptr, ptr, ptr, ptr, ptr, ptr, ptr, ptr, ptr, ptr, ptr, ptr, ptr, %struct.cli_all_bc, [7 x ptr], [7 x i32], i32, i32, i32, i32, i64, i64, i64, i64, i64, ptr, ptr, ptr, ptr, ptr, ptr, ptr, ptr, ptr, i32, i32, i32, i64, i64, i64, ptr }
%struct.crtmgr = type { ptr, i32 }
%struct.cli_all_bc = type { ptr, i32, ptr, %struct.cli_environment, i32 }
%struct.cli_environment = type { i32, i32, i32, i32, i32, i32, i32, [65 x i8], [65 x i8], [65 x i8], [65 x i8], [65 x i8], [65 x i8], [65 x i8], i8, i8, i8, i8, i8, i8, i8, i8, i8 }

@cli_debug_flag = external global i8, align 1
@hashlen = external constant [0 x i32], align 4
@.str.332 = private unnamed_addr constant [7 x i8] c"(NULL)\00", align 1
@.str.345 = private unnamed_addr constant [25 x i8] c"scan_pe: malloc failed!\0A\00", align 1
@.str.346 = private unnamed_addr constant [25 x i8] c"scan_pe: calloc failed!\0A\00", align 1
@.str.347 = private unnamed_addr constant [12 x i8] c"IMP: %s:%u\0A\00", align 1
@.str.348 = private unnamed_addr constant [8 x i8] c"Imphash\00", align 1

; Function Attrs: nounwind uwtable
define internal i32 @scan_pe_imp(ptr noundef %0, ptr noundef %1) #0 {
  %3 = alloca i32, align 4
  %4 = alloca ptr, align 8
  %5 = alloca ptr, align 8
  %6 = alloca ptr, align 8
  %7 = alloca [3 x ptr], align 16
  %8 = alloca ptr, align 8
  %9 = alloca [3 x i32], align 4
  %10 = alloca i32, align 4
  %11 = alloca i32, align 4
  %12 = alloca i32, align 4
  %13 = alloca ptr, align 8
  store ptr %0, ptr %4, align 8
  store ptr %1, ptr %5, align 8
  %14 = load ptr, ptr %4, align 8
  %15 = getelementptr inbounds %struct.cli_ctx_tag, ptr %14, i32 0, i32 6
  %16 = load ptr, ptr %15, align 8
  %17 = getelementptr inbounds %struct.cl_engine, ptr %16, i32 0, i32 21
  %18 = load ptr, ptr %17, align 8
  store ptr %18, ptr %6, align 8
  store ptr null, ptr %8, align 8
  store i32 0, ptr %10, align 4
  store i32 0, ptr %12, align 4
  store i32 0, ptr %11, align 4
  br label %19

19:                                               ; preds = %66, %2
  %20 = load i32, ptr %11, align 4
  %21 = icmp ult i32 %20, 3
  br i1 %21, label %22, label %69

22:                                               ; preds = %19
  %23 = load ptr, ptr %6, align 8
  %24 = load i32, ptr %11, align 4
  %25 = call i32 @cli_hm_have_any(ptr noundef %23, i32 noundef %24)
  %26 = load i32, ptr %11, align 4
  %27 = zext i32 %26 to i64
  %28 = getelementptr inbounds [3 x i32], ptr %9, i64 0, i64 %27
  store i32 %25, ptr %28, align 4
  %29 = load i32, ptr %11, align 4
  %30 = zext i32 %29 to i64
  %31 = getelementptr inbounds [3 x i32], ptr %9, i64 0, i64 %30
  %32 = load i32, ptr %31, align 4
  %33 = icmp ne i32 %32, 0
  br i1 %33, label %34, label %61

34:                                               ; preds = %22
  %35 = load i32, ptr %11, align 4
  %36 = zext i32 %35 to i64
  %37 = getelementptr inbounds [0 x i32], ptr @hashlen, i64 0, i64 %36
  %38 = load i32, ptr %37, align 4
  %39 = zext i32 %38 to i64
  %40 = call noalias ptr @malloc(i64 noundef %39) #12
  %41 = load i32, ptr %11, align 4
  %42 = zext i32 %41 to i64
  %43 = getelementptr inbounds [3 x ptr], ptr %7, i64 0, i64 %42
  store ptr %40, ptr %43, align 8
  %44 = load i32, ptr %11, align 4
  %45 = zext i32 %44 to i64
  %46 = getelementptr inbounds [3 x ptr], ptr %7, i64 0, i64 %45
  %47 = load ptr, ptr %46, align 8
  %48 = icmp ne ptr %47, null
  br i1 %48, label %60, label %49

49:                                               ; preds = %34
  call void (ptr, ...) @cli_errmsg(ptr noundef @.str.345)
  br label %50

50:                                               ; preds = %53, %49
  %51 = load i32, ptr %11, align 4
  %52 = icmp ugt i32 %51, 0
  br i1 %52, label %53, label %59

53:                                               ; preds = %50
  %54 = load i32, ptr %11, align 4
  %55 = add i32 %54, -1
  store i32 %55, ptr %11, align 4
  %56 = zext i32 %55 to i64
  %57 = getelementptr inbounds [3 x ptr], ptr %7, i64 0, i64 %56
  %58 = load ptr, ptr %57, align 8
  call void @free(ptr noundef %58) #9
  br label %50

59:                                               ; preds = %50
  store i32 20, ptr %3, align 4
  br label %232

60:                                               ; preds = %34
  br label %65

61:                                               ; preds = %22
  %62 = load i32, ptr %11, align 4
  %63 = zext i32 %62 to i64
  %64 = getelementptr inbounds [3 x ptr], ptr %7, i64 0, i64 %63
  store ptr null, ptr %64, align 8
  br label %65

65:                                               ; preds = %61, %60
  br label %66

66:                                               ; preds = %65
  %67 = load i32, ptr %11, align 4
  %68 = add i32 %67, 1
  store i32 %68, ptr %11, align 4
  br label %19

69:                                               ; preds = %19
  %70 = load i8, ptr @cli_debug_flag, align 1
  %71 = zext i8 %70 to i32
  %72 = icmp ne i32 %71, 0
  br i1 %72, label %78, label %73

73:                                               ; preds = %69
  %74 = load ptr, ptr %4, align 8
  %75 = getelementptr inbounds %struct.cli_ctx_tag, ptr %74, i32 0, i32 21
  %76 = load ptr, ptr %75, align 8
  %77 = icmp ne ptr %76, null
  br i1 %77, label %78, label %105

78:                                               ; preds = %73, %69
  %79 = getelementptr inbounds [3 x i32], ptr %9, i64 0, i64 0
  %80 = load i32, ptr %79, align 4
  %81 = icmp ne i32 %80, 0
  br i1 %81, label %105, label %82

82:                                               ; preds = %78
  %83 = getelementptr inbounds [3 x i32], ptr %9, i64 0, i64 0
  store i32 1, ptr %83, align 4
  %84 = load i32, ptr @hashlen, align 4
  %85 = zext i32 %84 to i64
  %86 = call noalias ptr @calloc(i64 noundef %85, i64 noundef 1) #10
  %87 = getelementptr inbounds [3 x ptr], ptr %7, i64 0, i64 0
  store ptr %86, ptr %87, align 16
  %88 = getelementptr inbounds [3 x ptr], ptr %7, i64 0, i64 0
  %89 = load ptr, ptr %88, align 16
  %90 = icmp ne ptr %89, null
  br i1 %90, label %104, label %91

91:                                               ; preds = %82
  call void (ptr, ...) @cli_errmsg(ptr noundef @.str.346)
  store i32 0, ptr %11, align 4
  br label %92

92:                                               ; preds = %100, %91
  %93 = load i32, ptr %11, align 4
  %94 = icmp ult i32 %93, 3
  br i1 %94, label %95, label %103

95:                                               ; preds = %92
  %96 = load i32, ptr %11, align 4
  %97 = zext i32 %96 to i64
  %98 = getelementptr inbounds [3 x ptr], ptr %7, i64 0, i64 %97
  %99 = load ptr, ptr %98, align 8
  call void @free(ptr noundef %99) #9
  br label %100

100:                                              ; preds = %95
  %101 = load i32, ptr %11, align 4
  %102 = add i32 %101, 1
  store i32 %102, ptr %11, align 4
  br label %92

103:                                              ; preds = %92
  store i32 20, ptr %3, align 4
  br label %232

104:                                              ; preds = %82
  br label %105

105:                                              ; preds = %104, %78, %73
  %106 = load ptr, ptr %4, align 8
  %107 = getelementptr inbounds [3 x ptr], ptr %7, i64 0, i64 0
  %108 = getelementptr inbounds [3 x i32], ptr %9, i64 0, i64 0
  %109 = load ptr, ptr %5, align 8
  %110 = call i32 @hash_imptbl(ptr noundef %106, ptr noundef %107, ptr noundef %10, ptr noundef %108, ptr noundef %109)
  store i32 %110, ptr %12, align 4
  %111 = load i32, ptr %12, align 4
  %112 = icmp ne i32 %111, 0
  br i1 %112, label %113, label %131

113:                                              ; preds = %105
  store i32 0, ptr %11, align 4
  br label %114

114:                                              ; preds = %122, %113
  %115 = load i32, ptr %11, align 4
  %116 = icmp ult i32 %115, 3
  br i1 %116, label %117, label %125

117:                                              ; preds = %114
  %118 = load i32, ptr %11, align 4
  %119 = zext i32 %118 to i64
  %120 = getelementptr inbounds [3 x ptr], ptr %7, i64 0, i64 %119
  %121 = load ptr, ptr %120, align 8
  call void @free(ptr noundef %121) #9
  br label %122

122:                                              ; preds = %117
  %123 = load i32, ptr %11, align 4
  %124 = add i32 %123, 1
  store i32 %124, ptr %11, align 4
  br label %114

125:                                              ; preds = %114
  %126 = load i32, ptr %12, align 4
  %127 = icmp eq i32 %126, 22
  br i1 %127, label %128, label %129

128:                                              ; preds = %125
  store i32 0, ptr %12, align 4
  br label %129

129:                                              ; preds = %128, %125
  %130 = load i32, ptr %12, align 4
  store i32 %130, ptr %3, align 4
  br label %232

131:                                              ; preds = %105
  %132 = load i8, ptr @cli_debug_flag, align 1
  %133 = zext i8 %132 to i32
  %134 = icmp ne i32 %133, 0
  br i1 %134, label %140, label %135

135:                                              ; preds = %131
  %136 = load ptr, ptr %4, align 8
  %137 = getelementptr inbounds %struct.cli_ctx_tag, ptr %136, i32 0, i32 21
  %138 = load ptr, ptr %137, align 8
  %139 = icmp ne ptr %138, null
  br i1 %139, label %140, label %175

140:                                              ; preds = %135, %131
  %141 = getelementptr inbounds [3 x ptr], ptr %7, i64 0, i64 0
  %142 = load ptr, ptr %141, align 16
  %143 = load i32, ptr @hashlen, align 4
  %144 = call ptr @cli_str2hex(ptr noundef %142, i32 noundef %143)
  store ptr %144, ptr %13, align 8
  %145 = load ptr, ptr %13, align 8
  %146 = icmp ne ptr %145, null
  br i1 %146, label %147, label %149

147:                                              ; preds = %140
  %148 = load ptr, ptr %13, align 8
  br label %150

149:                                              ; preds = %140
  br label %150

150:                                              ; preds = %149, %147
  %151 = phi ptr [ %148, %147 ], [ @.str.332, %149 ]
  %152 = load i32, ptr %10, align 4
  call void (ptr, ...) @cli_dbgmsg(ptr noundef @.str.347, ptr noundef %151, i32 noundef %152)
  %153 = load ptr, ptr %4, align 8
  %154 = getelementptr inbounds %struct.cli_ctx_tag, ptr %153, i32 0, i32 21
  %155 = load ptr, ptr %154, align 8
  %156 = icmp ne ptr %155, null
  br i1 %156, label %157, label %169

157:                                              ; preds = %150
  %158 = load ptr, ptr %4, align 8
  %159 = getelementptr inbounds %struct.cli_ctx_tag, ptr %158, i32 0, i32 21
  %160 = load ptr, ptr %159, align 8
  %161 = load ptr, ptr %13, align 8
  %162 = icmp ne ptr %161, null
  br i1 %162, label %163, label %165

163:                                              ; preds = %157
  %164 = load ptr, ptr %13, align 8
  br label %166

165:                                              ; preds = %157
  br label %166

166:                                              ; preds = %165, %163
  %167 = phi ptr [ %164, %163 ], [ @.str.332, %165 ]
  %168 = call i32 @cli_jsonstr(ptr noundef %160, ptr noundef @.str.348, ptr noundef %167)
  br label %169

169:                                              ; preds = %166, %150
  %170 = load ptr, ptr %13, align 8
  %171 = icmp ne ptr %170, null
  br i1 %171, label %172, label %174

172:                                              ; preds = %169
  %173 = load ptr, ptr %13, align 8
  call void @free(ptr noundef %173) #9
  br label %174

174:                                              ; preds = %172, %169
  br label %175

175:                                              ; preds = %174, %135
  store i32 0, ptr %11, align 4
  br label %176

176:                                              ; preds = %215, %175
  %177 = load i32, ptr %11, align 4
  %178 = icmp ult i32 %177, 3
  br i1 %178, label %179, label %218

179:                                              ; preds = %176
  %180 = load i32, ptr %11, align 4
  %181 = zext i32 %180 to i64
  %182 = getelementptr inbounds [3 x ptr], ptr %7, i64 0, i64 %181
  %183 = load ptr, ptr %182, align 8
  %184 = load i32, ptr %10, align 4
  %185 = load ptr, ptr %6, align 8
  %186 = load i32, ptr %11, align 4
  %187 = call i32 @cli_hm_scan(ptr noundef %183, i32 noundef %184, ptr noundef %8, ptr noundef %185, i32 noundef %186)
  %188 = icmp eq i32 %187, 1
  br i1 %188, label %189, label %197

189:                                              ; preds = %179
  %190 = load ptr, ptr %4, align 8
  %191 = load ptr, ptr %8, align 8
  %192 = call i32 @cli_append_virus(ptr noundef %190, ptr noundef %191)
  store i32 %192, ptr %12, align 4
  %193 = load i32, ptr %12, align 4
  %194 = icmp ne i32 %193, 0
  br i1 %194, label %195, label %196

195:                                              ; preds = %189
  br label %218

196:                                              ; preds = %189
  br label %197

197:                                              ; preds = %196, %179
  %198 = load i32, ptr %11, align 4
  %199 = zext i32 %198 to i64
  %200 = getelementptr inbounds [3 x ptr], ptr %7, i64 0, i64 %199
  %201 = load ptr, ptr %200, align 8
  %202 = load ptr, ptr %6, align 8
  %203 = load i32, ptr %11, align 4
  %204 = call i32 @cli_hm_scan_wild(ptr noundef %201, ptr noundef %8, ptr noundef %202, i32 noundef %203)
  %205 = icmp eq i32 %204, 1
  br i1 %205, label %206, label %214

206:                                              ; preds = %197
  %207 = load ptr, ptr %4, align 8
  %208 = load ptr, ptr %8, align 8
  %209 = call i32 @cli_append_virus(ptr noundef %207, ptr noundef %208)
  %210 = load i32, ptr %12, align 4
  %211 = icmp ne i32 %210, 0
  br i1 %211, label %212, label %213

212:                                              ; preds = %206
  br label %218

213:                                              ; preds = %206
  br label %214

214:                                              ; preds = %213, %197
  br label %215

215:                                              ; preds = %214
  %216 = load i32, ptr %11, align 4
  %217 = add i32 %216, 1
  store i32 %217, ptr %11, align 4
  br label %176

218:                                              ; preds = %212, %195, %176
  store i32 0, ptr %11, align 4
  br label %219

219:                                              ; preds = %227, %218
  %220 = load i32, ptr %11, align 4
  %221 = icmp ult i32 %220, 3
  br i1 %221, label %222, label %230

222:                                              ; preds = %219
  %223 = load i32, ptr %11, align 4
  %224 = zext i32 %223 to i64
  %225 = getelementptr inbounds [3 x ptr], ptr %7, i64 0, i64 %224
  %226 = load ptr, ptr %225, align 8
  call void @free(ptr noundef %226) #9
  br label %227

227:                                              ; preds = %222
  %228 = load i32, ptr %11, align 4
  %229 = add i32 %228, 1
  store i32 %229, ptr %11, align 4
  br label %219

230:                                              ; preds = %219
  %231 = load i32, ptr %12, align 4
  store i32 %231, ptr %3, align 4
  br label %232

232:                                              ; preds = %230, %129, %103, %59
  %233 = load i32, ptr %3, align 4
  ret i32 %233
}