; Function Attrs: nounwind uwtable
define internal fastcc i32 @scan_pe_imp(ptr noundef %0, ptr nocapture noundef readonly %1) unnamed_addr #1 {
  %3 = alloca [3 x ptr], align 16
  %4 = alloca ptr, align 8
  %5 = alloca [3 x i32], align 4
  %6 = alloca i32, align 4
  %7 = getelementptr inbounds i8, ptr %0, i64 48
  %8 = load ptr, ptr %7, align 8
  %9 = getelementptr inbounds i8, ptr %8, i64 120
  %10 = load ptr, ptr %9, align 8
  store ptr null, ptr %4, align 8
  store i32 0, ptr %6, align 4
  br label %11

11:                                               ; preds = %2, %27
  %indvars.iv = phi i64 [ 0, %2 ], [ %indvars.iv.next, %27 ]
  %12 = trunc nuw nsw i64 %indvars.iv to i32
  %13 = tail call i32 @cli_hm_have_any(ptr noundef %10, i32 noundef %12) #20
  %14 = getelementptr inbounds [3 x i32], ptr %5, i64 0, i64 %indvars.iv
  store i32 %13, ptr %14, align 4
  %.not69 = icmp eq i32 %13, 0
  br i1 %.not69, label %25, label %15

15:                                               ; preds = %11
  %16 = getelementptr inbounds [0 x i32], ptr @hashlen, i64 0, i64 %indvars.iv
  %17 = load i32, ptr %16, align 4
  %18 = zext i32 %17 to i64
  %19 = tail call noalias ptr @malloc(i64 noundef %18) #21
  %20 = getelementptr inbounds [3 x ptr], ptr %3, i64 0, i64 %indvars.iv
  store ptr %19, ptr %20, align 8
  %.not70 = icmp eq ptr %19, null
  br i1 %.not70, label %21, label %27

21:                                               ; preds = %15
  tail call void (ptr, ...) @cli_errmsg(ptr noundef nonnull @.str.345) #20
  %.not7180 = icmp eq i32 %12, 0
  br i1 %.not7180, label %.loopexit, label %.lr.ph

.lr.ph:                                           ; preds = %21, %.lr.ph
  %indvars.iv87 = phi i64 [ %22, %.lr.ph ], [ %indvars.iv, %21 ]
  %22 = add nsw i64 %indvars.iv87, -1
  %23 = getelementptr inbounds [3 x ptr], ptr %3, i64 0, i64 %22
  %24 = load ptr, ptr %23, align 8
  tail call void @free(ptr noundef %24) #20
  %.not71.wide = icmp eq i64 %22, 0
  br i1 %.not71.wide, label %.loopexit, label %.lr.ph

25:                                               ; preds = %11
  %26 = getelementptr inbounds [3 x ptr], ptr %3, i64 0, i64 %indvars.iv
  store ptr null, ptr %26, align 8
  br label %27

27:                                               ; preds = %25, %15
  %indvars.iv.next = add nuw nsw i64 %indvars.iv, 1
  %exitcond.not = icmp eq i64 %indvars.iv.next, 3
  br i1 %exitcond.not, label %28, label %11

28:                                               ; preds = %27
  %29 = load i8, ptr @cli_debug_flag, align 1
  %.not = icmp eq i8 %29, 0
  br i1 %.not, label %30, label %36

30:                                               ; preds = %28
  %31 = getelementptr inbounds i8, ptr %0, i64 160
  %32 = load ptr, ptr %31, align 8
  %33 = icmp eq ptr %32, null
  %34 = load i32, ptr %5, align 4
  %35 = icmp ne i32 %34, 0
  %or.cond = select i1 %33, i1 true, i1 %35
  br i1 %or.cond, label %45, label %37

36:                                               ; preds = %28
  %.old1 = load i32, ptr %5, align 4
  %.old2.not = icmp eq i32 %.old1, 0
  br i1 %.old2.not, label %37, label %45

37:                                               ; preds = %30, %36
  store i32 1, ptr %5, align 4
  %38 = load i32, ptr @hashlen, align 4
  %39 = zext i32 %38 to i64
  %40 = tail call noalias ptr @calloc(i64 noundef %39, i64 noundef 1) #22
  store ptr %40, ptr %3, align 16
  %.not62 = icmp eq ptr %40, null
  br i1 %.not62, label %41, label %45

41:                                               ; preds = %37
  tail call void (ptr, ...) @cli_errmsg(ptr noundef nonnull @.str.346) #20
  br label %42

42:                                               ; preds = %41, %42
  %indvars.iv90 = phi i64 [ 0, %41 ], [ %indvars.iv.next91, %42 ]
  %43 = getelementptr inbounds [3 x ptr], ptr %3, i64 0, i64 %indvars.iv90
  %44 = load ptr, ptr %43, align 8
  tail call void @free(ptr noundef %44) #20
  %indvars.iv.next91 = add nuw nsw i64 %indvars.iv90, 1
  %exitcond93.not = icmp eq i64 %indvars.iv.next91, 3
  br i1 %exitcond93.not, label %.loopexit, label %42

45:                                               ; preds = %37, %36, %30
  %46 = call fastcc i32 @hash_imptbl(ptr noundef %0, ptr noundef nonnull %3, ptr noundef nonnull %6, ptr noundef nonnull %5, ptr noundef %1)
  %.not63 = icmp eq i32 %46, 0
  br i1 %.not63, label %51, label %.preheader

.preheader:                                       ; preds = %45, %.preheader
  %indvars.iv94 = phi i64 [ %indvars.iv.next95, %.preheader ], [ 0, %45 ]
  %47 = getelementptr inbounds [3 x ptr], ptr %3, i64 0, i64 %indvars.iv94
  %48 = load ptr, ptr %47, align 8
  tail call void @free(ptr noundef %48) #20
  %indvars.iv.next95 = add nuw nsw i64 %indvars.iv94, 1
  %exitcond97.not = icmp eq i64 %indvars.iv.next95, 3
  br i1 %exitcond97.not, label %49, label %.preheader

49:                                               ; preds = %.preheader
  %50 = icmp eq i32 %46, 22
  %spec.store.select = select i1 %50, i32 0, i32 %46
  br label %.loopexit

51:                                               ; preds = %45
  %52 = load i8, ptr @cli_debug_flag, align 1
  %.not64 = icmp eq i8 %52, 0
  br i1 %.not64, label %53, label %56

53:                                               ; preds = %51
  %54 = getelementptr inbounds i8, ptr %0, i64 160
  %55 = load ptr, ptr %54, align 8
  %.not65 = icmp eq ptr %55, null
  br i1 %.not65, label %._crit_edge, label %56

._crit_edge:                                      ; preds = %53
  %.pre = load i32, ptr %6, align 4
  br label %68

56:                                               ; preds = %53, %51
  %57 = load ptr, ptr %3, align 16
  %58 = load i32, ptr @hashlen, align 4
  %59 = tail call ptr @cli_str2hex(ptr noundef %57, i32 noundef %58) #20
  %.not66 = icmp eq ptr %59, null
  %60 = select i1 %.not66, ptr @.str.332, ptr %59
  %61 = load i32, ptr %6, align 4
  tail call void (ptr, ...) @cli_dbgmsg(ptr noundef nonnull @.str.347, ptr noundef nonnull %60, i32 noundef %61) #20
  %62 = getelementptr inbounds i8, ptr %0, i64 160
  %63 = load ptr, ptr %62, align 8
  %.not67 = icmp eq ptr %63, null
  br i1 %.not67, label %66, label %64

64:                                               ; preds = %56
  %65 = tail call i32 @cli_jsonstr(ptr noundef nonnull %63, ptr noundef nonnull @.str.348, ptr noundef nonnull %60) #20
  br label %66

66:                                               ; preds = %64, %56
  br i1 %.not66, label %68, label %67

67:                                               ; preds = %66
  tail call void @free(ptr noundef nonnull %59) #20
  br label %68

68:                                               ; preds = %._crit_edge, %66, %67
  %69 = phi i32 [ %.pre, %._crit_edge ], [ %61, %66 ], [ %61, %67 ]
  br label %70

70:                                               ; preds = %68, %85
  %indvars.iv98 = phi i64 [ 0, %68 ], [ %indvars.iv.next99, %85 ]
  %71 = getelementptr inbounds [3 x ptr], ptr %3, i64 0, i64 %indvars.iv98
  %72 = load ptr, ptr %71, align 8
  %73 = trunc nuw nsw i64 %indvars.iv98 to i32
  %74 = call i32 @cli_hm_scan(ptr noundef %72, i32 noundef %69, ptr noundef nonnull %4, ptr noundef %10, i32 noundef %73) #20
  %75 = icmp eq i32 %74, 1
  br i1 %75, label %76, label %79

76:                                               ; preds = %70
  %77 = load ptr, ptr %4, align 8
  %78 = call i32 @cli_append_virus(ptr noundef %0, ptr noundef %77) #20
  %.not68 = icmp eq i32 %78, 0
  br i1 %.not68, label %79, label %86

79:                                               ; preds = %76, %70
  %80 = call i32 @cli_hm_scan_wild(ptr noundef %72, ptr noundef nonnull %4, ptr noundef %10, i32 noundef %73) #20
  %81 = icmp eq i32 %80, 1
  br i1 %81, label %82, label %85

82:                                               ; preds = %79
  %83 = load ptr, ptr %4, align 8
  %84 = call i32 @cli_append_virus(ptr noundef %0, ptr noundef %83) #20
  br label %85

85:                                               ; preds = %82, %79
  %indvars.iv.next99 = add nuw nsw i64 %indvars.iv98, 1
  %exitcond101.not = icmp eq i64 %indvars.iv.next99, 3
  br i1 %exitcond101.not, label %86, label %70

86:                                               ; preds = %76, %85
  %.2 = phi i32 [ %78, %76 ], [ 0, %85 ]
  br label %87

87:                                               ; preds = %86, %87
  %indvars.iv102 = phi i64 [ 0, %86 ], [ %indvars.iv.next103, %87 ]
  %88 = getelementptr inbounds [3 x ptr], ptr %3, i64 0, i64 %indvars.iv102
  %89 = load ptr, ptr %88, align 8
  call void @free(ptr noundef %89) #20
  %indvars.iv.next103 = add nuw nsw i64 %indvars.iv102, 1
  %exitcond105.not = icmp eq i64 %indvars.iv.next103, 3
  br i1 %exitcond105.not, label %.loopexit, label %87

.loopexit:                                        ; preds = %.lr.ph, %42, %87, %21, %49
  %.0 = phi i32 [ %spec.store.select, %49 ], [ 20, %21 ], [ %.2, %87 ], [ 20, %42 ], [ 20, %.lr.ph ]
  ret i32 %.0
}